target datalayout = "e-m:e-p270:32:32-p271:32:32-p272:64:64-i64:64-i128:128-f80:128-n8:16:32:64-S128"
target triple = "x86_64-pc-linux-gnu"

%struct.AVFilterContext = type { ptr, ptr, ptr, ptr, ptr, i32, ptr, ptr, i32, ptr, ptr, i32, i32, ptr, ptr, ptr, ptr, i32, ptr, i32, i32 }
%struct.ChannelMapContext = type { ptr, ptr, %struct.AVChannelLayout, ptr, i32, i32, ptr }
%struct.AVChannelLayout = type { i32, i32, %union.anon.1, ptr }
%union.anon.1 = type { i64 }
%struct.ChannelMap = type { i32, i32, i32, i32 }
%struct.AVFilterFormatsConfig = type { ptr, ptr, ptr, ptr, ptr }
%struct.AVFilterLink = type { ptr, ptr, ptr, ptr, i32, i32, i32, i32, %struct.AVRational, i32, i32, i32, %struct.AVChannelLayout, %struct.AVRational, ptr, i32, %struct.AVFilterFormatsConfig, %struct.AVFilterFormatsConfig }
%struct.AVRational = type { i32, i32 }

@.str.3 = private unnamed_addr constant [3 x i8] c"in\00", align 1
@.str.4 = private unnamed_addr constant [57 x i8] c"%sput channel '%s' not available from %sput layout '%s'\0A\00", align 1
@.str.5 = private unnamed_addr constant [56 x i8] c"%sput channel #%d not available from %sput layout '%s'\0A\00", align 1

; Function Attrs: nounwind uwtable
define internal i32 @check_idx_and_id(ptr noundef %0, i32 noundef %1, i32 noundef %2, ptr noundef %3, ptr noundef %4) #1 {
  %6 = alloca i32, align 4
  %7 = alloca ptr, align 8
  %8 = alloca i32, align 4
  %9 = alloca i32, align 4
  %10 = alloca ptr, align 8
  %11 = alloca ptr, align 8
  %12 = alloca [64 x i8], align 16
  %13 = alloca [256 x i8], align 16
  %14 = alloca i32, align 4
  %15 = alloca i32, align 4
  store ptr %0, ptr %7, align 8, !tbaa !4
  store i32 %1, ptr %8, align 4, !tbaa !25
  store i32 %2, ptr %9, align 4, !tbaa !25
  store ptr %3, ptr %10, align 8, !tbaa !76
  store ptr %4, ptr %11, align 8, !tbaa !28
  call void @llvm.lifetime.start.p0(i64 64, ptr %12) #8
  call void @llvm.lifetime.start.p0(i64 256, ptr %13) #8
  call void @llvm.lifetime.start.p0(i64 4, ptr %14) #8
  %16 = load ptr, ptr %10, align 8, !tbaa !76
  %17 = getelementptr inbounds nuw %struct.AVChannelLayout, ptr %16, i32 0, i32 1
  %18 = load i32, ptr %17, align 4, !tbaa !78
  store i32 %18, ptr %14, align 4, !tbaa !25
  %19 = load i32, ptr %8, align 4, !tbaa !25
  %20 = icmp slt i32 %19, 0
  br i1 %20, label %25, label %21

21:                                               ; preds = %5
  %22 = load i32, ptr %8, align 4, !tbaa !25
  %23 = load i32, ptr %14, align 4, !tbaa !25
  %24 = icmp sge i32 %22, %23
  br i1 %24, label %25, label %47

25:                                               ; preds = %21, %5
  %26 = load ptr, ptr %10, align 8, !tbaa !76
  %27 = getelementptr inbounds [256 x i8], ptr %13, i64 0, i64 0
  %28 = call i32 @av_channel_layout_describe(ptr noundef %26, ptr noundef %27, i64 noundef 256)
  %29 = load i32, ptr %9, align 4, !tbaa !25
  %30 = icmp sge i32 %29, 0
  br i1 %30, label %31, label %40

31:                                               ; preds = %25
  %32 = getelementptr inbounds [64 x i8], ptr %12, i64 0, i64 0
  %33 = load i32, ptr %9, align 4, !tbaa !25
  %34 = call i32 @av_channel_name(ptr noundef %32, i64 noundef 64, i32 noundef %33)
  %35 = load ptr, ptr %7, align 8, !tbaa !4
  %36 = load ptr, ptr %11, align 8, !tbaa !28
  %37 = getelementptr inbounds [64 x i8], ptr %12, i64 0, i64 0
  %38 = load ptr, ptr %11, align 8, !tbaa !28
  %39 = getelementptr inbounds [256 x i8], ptr %13, i64 0, i64 0
  call void (ptr, i32, ptr, ...) @av_log(ptr noundef %35, i32 noundef 16, ptr noundef @.str.4, ptr noundef %36, ptr noundef %37, ptr noundef %38, ptr noundef %39)
  br label %46

40:                                               ; preds = %25
  %41 = load ptr, ptr %7, align 8, !tbaa !4
  %42 = load ptr, ptr %11, align 8, !tbaa !28
  %43 = load i32, ptr %8, align 4, !tbaa !25
  %44 = load ptr, ptr %11, align 8, !tbaa !28
  %45 = getelementptr inbounds [256 x i8], ptr %13, i64 0, i64 0
  call void (ptr, i32, ptr, ...) @av_log(ptr noundef %41, i32 noundef 16, ptr noundef @.str.5, ptr noundef %42, i32 noundef %43, ptr noundef %44, ptr noundef %45)
  br label %46

46:                                               ; preds = %40, %31
  store i32 -22, ptr %6, align 4
  store i32 1, ptr %15, align 4
  br label %48

47:                                               ; preds = %21
  store i32 0, ptr %6, align 4
  store i32 1, ptr %15, align 4
  br label %48

48:                                               ; preds = %47, %46
  call void @llvm.lifetime.end.p0(i64 4, ptr %14) #8
  call void @llvm.lifetime.end.p0(i64 256, ptr %13) #8
  call void @llvm.lifetime.end.p0(i64 64, ptr %12) #8
  %49 = load i32, ptr %6, align 4
  ret i32 %49
}

; Function Attrs: nounwind uwtable
define internal i32 @channelmap_config_input(ptr noundef %0) #1 {
  %2 = alloca i32, align 4
  %3 = alloca ptr, align 8
  %4 = alloca ptr, align 8
  %5 = alloca ptr, align 8
  %6 = alloca i32, align 4
  %7 = alloca i32, align 4
  %8 = alloca ptr, align 8
  %9 = alloca i32, align 4
  store ptr %0, ptr %3, align 8, !tbaa !55
  call void @llvm.lifetime.start.p0(i64 8, ptr %4) #8
  %10 = load ptr, ptr %3, align 8, !tbaa !55
  %11 = getelementptr inbounds nuw %struct.AVFilterLink, ptr %10, i32 0, i32 2
  %12 = load ptr, ptr %11, align 8, !tbaa !59
  store ptr %12, ptr %4, align 8, !tbaa !4
  call void @llvm.lifetime.start.p0(i64 8, ptr %5) #8
  %13 = load ptr, ptr %4, align 8, !tbaa !4
  %14 = getelementptr inbounds nuw %struct.AVFilterContext, ptr %13, i32 0, i32 9
  %15 = load ptr, ptr %14, align 8, !tbaa !9
  store ptr %15, ptr %5, align 8, !tbaa !22
  call void @llvm.lifetime.start.p0(i64 4, ptr %6) #8
  call void @llvm.lifetime.start.p0(i64 4, ptr %7) #8
  store i32 0, ptr %7, align 4, !tbaa !25
  store i32 0, ptr %6, align 4, !tbaa !25
  br label %16

16:                                               ; preds = %66, %1
  %17 = load i32, ptr %6, align 4, !tbaa !25
  %18 = load ptr, ptr %5, align 8, !tbaa !22
  %19 = getelementptr inbounds nuw %struct.ChannelMapContext, ptr %18, i32 0, i32 4
  %20 = load i32, ptr %19, align 8, !tbaa !44
  %21 = icmp slt i32 %17, %20
  br i1 %21, label %22, label %69

22:                                               ; preds = %16
  call void @llvm.lifetime.start.p0(i64 8, ptr %8) #8
  %23 = load ptr, ptr %5, align 8, !tbaa !22
  %24 = getelementptr inbounds nuw %struct.ChannelMapContext, ptr %23, i32 0, i32 3
  %25 = load ptr, ptr %24, align 8, !tbaa !36
  %26 = load i32, ptr %6, align 4, !tbaa !25
  %27 = sext i32 %26 to i64
  %28 = getelementptr inbounds %struct.ChannelMap, ptr %25, i64 %27
  store ptr %28, ptr %8, align 8, !tbaa !74
  %29 = load ptr, ptr %5, align 8, !tbaa !22
  %30 = getelementptr inbounds nuw %struct.ChannelMapContext, ptr %29, i32 0, i32 5
  %31 = load i32, ptr %30, align 4, !tbaa !43
  %32 = icmp eq i32 %31, 5
  br i1 %32, label %43, label %33

33:                                               ; preds = %22
  %34 = load ptr, ptr %5, align 8, !tbaa !22
  %35 = getelementptr inbounds nuw %struct.ChannelMapContext, ptr %34, i32 0, i32 5
  %36 = load i32, ptr %35, align 4, !tbaa !43
  %37 = icmp eq i32 %36, 6
  br i1 %37, label %43, label %38

38:                                               ; preds = %33
  %39 = load ptr, ptr %5, align 8, !tbaa !22
  %40 = getelementptr inbounds nuw %struct.ChannelMapContext, ptr %39, i32 0, i32 5
  %41 = load i32, ptr %40, align 4, !tbaa !43
  %42 = icmp eq i32 %41, 2
  br i1 %42, label %43, label %52

43:                                               ; preds = %38, %33, %22
  %44 = load ptr, ptr %3, align 8, !tbaa !55
  %45 = getelementptr inbounds nuw %struct.AVFilterLink, ptr %44, i32 0, i32 12
  %46 = load ptr, ptr %8, align 8, !tbaa !74
  %47 = getelementptr inbounds nuw %struct.ChannelMap, ptr %46, i32 0, i32 0
  %48 = load i32, ptr %47, align 4, !tbaa !40
  %49 = call i32 @av_channel_layout_index_from_channel(ptr noundef %45, i32 noundef %48)
  %50 = load ptr, ptr %8, align 8, !tbaa !74
  %51 = getelementptr inbounds nuw %struct.ChannelMap, ptr %50, i32 0, i32 2
  store i32 %49, ptr %51, align 4, !tbaa !37
  br label %52

52:                                               ; preds = %43, %38
  %53 = load ptr, ptr %4, align 8, !tbaa !4
  %54 = load ptr, ptr %8, align 8, !tbaa !74
  %55 = getelementptr inbounds nuw %struct.ChannelMap, ptr %54, i32 0, i32 2
  %56 = load i32, ptr %55, align 4, !tbaa !37
  %57 = load ptr, ptr %8, align 8, !tbaa !74
  %58 = getelementptr inbounds nuw %struct.ChannelMap, ptr %57, i32 0, i32 0
  %59 = load i32, ptr %58, align 4, !tbaa !40
  %60 = load ptr, ptr %3, align 8, !tbaa !55
  %61 = getelementptr inbounds nuw %struct.AVFilterLink, ptr %60, i32 0, i32 12
  %62 = call i32 @check_idx_and_id(ptr noundef %53, i32 noundef %56, i32 noundef %59, ptr noundef %61, ptr noundef @.str.3)
  %63 = icmp slt i32 %62, 0
  br i1 %63, label %64, label %65

64:                                               ; preds = %52
  store i32 -22, ptr %7, align 4, !tbaa !25
  br label %65

65:                                               ; preds = %64, %52
  call void @llvm.lifetime.end.p0(i64 8, ptr %8) #8
  br label %66

66:                                               ; preds = %65
  %67 = load i32, ptr %6, align 4, !tbaa !25
  %68 = add nsw i32 %67, 1
  store i32 %68, ptr %6, align 4, !tbaa !25
  br label %16, !llvm.loop !75

69:                                               ; preds = %16
  %70 = load ptr, ptr %5, align 8, !tbaa !22
  %71 = getelementptr inbounds nuw %struct.ChannelMapContext, ptr %70, i32 0, i32 6
  call void @av_freep(ptr noundef %71)
  %72 = load ptr, ptr %3, align 8, !tbaa !55
  %73 = getelementptr inbounds nuw %struct.AVFilterLink, ptr %72, i32 0, i32 12
  %74 = getelementptr inbounds nuw %struct.AVChannelLayout, ptr %73, i32 0, i32 1
  %75 = load i32, ptr %74, align 4, !tbaa !66
  %76 = sext i32 %75 to i64
  %77 = call noalias ptr @av_calloc(i64 noundef %76, i64 noundef 8)
  %78 = load ptr, ptr %5, align 8, !tbaa !22
  %79 = getelementptr inbounds nuw %struct.ChannelMapContext, ptr %78, i32 0, i32 6
  store ptr %77, ptr %79, align 8, !tbaa !67
  %80 = load ptr, ptr %5, align 8, !tbaa !22
  %81 = getelementptr inbounds nuw %struct.ChannelMapContext, ptr %80, i32 0, i32 6
  %82 = load ptr, ptr %81, align 8, !tbaa !67
  %83 = icmp ne ptr %82, null
  br i1 %83, label %85, label %84

84:                                               ; preds = %69
  store i32 -12, ptr %2, align 4
  store i32 1, ptr %9, align 4
  br label %87

85:                                               ; preds = %69
  %86 = load i32, ptr %7, align 4, !tbaa !25
  store i32 %86, ptr %2, align 4
  store i32 1, ptr %9, align 4
  br label %87

87:                                               ; preds = %85, %84
  call void @llvm.lifetime.end.p0(i64 4, ptr %7) #8
  call void @llvm.lifetime.end.p0(i64 4, ptr %6) #8
  call void @llvm.lifetime.end.p0(i64 8, ptr %5) #8
  call void @llvm.lifetime.end.p0(i64 8, ptr %4) #8
  %88 = load i32, ptr %2, align 4
  ret i32 %88
}