; Function Attrs: nounwind uwtable
define internal range(i32 -22, 1) i32 @channelmap_config_input(ptr noundef %0) #1 {
  %2 = alloca [64 x i8], align 16
  %3 = alloca [256 x i8], align 16
  %4 = getelementptr inbounds nuw i8, ptr %0, i64 16
  %5 = load ptr, ptr %4, align 8, !tbaa !49
  %6 = getelementptr inbounds nuw i8, ptr %5, i64 72
  %7 = load ptr, ptr %6, align 8, !tbaa !4
  %8 = getelementptr inbounds nuw i8, ptr %7, i64 48
  %9 = load i32, ptr %8, align 8, !tbaa !38
  %10 = icmp sgt i32 %9, 0
  br i1 %10, label %.lr.ph, label %._crit_edge

.lr.ph:                                           ; preds = %1
  %11 = getelementptr inbounds nuw i8, ptr %7, i64 40
  %12 = getelementptr inbounds nuw i8, ptr %7, i64 52
  %13 = getelementptr inbounds nuw i8, ptr %0, i64 72
  %14 = getelementptr inbounds nuw i8, ptr %0, i64 76
  br label %15

15:                                               ; preds = %.lr.ph, %check_idx_and_id.exit
  %indvars.iv = phi i64 [ 0, %.lr.ph ], [ %indvars.iv.next, %check_idx_and_id.exit ]
  %.02227 = phi i32 [ 0, %.lr.ph ], [ %35, %check_idx_and_id.exit ]
  %16 = load ptr, ptr %11, align 8, !tbaa !29
  %17 = getelementptr inbounds nuw %struct.ChannelMap, ptr %16, i64 %indvars.iv
  %18 = load i32, ptr %12, align 4, !tbaa !37
  switch i32 %18, label %._crit_edge29 [
    i32 5, label %19
    i32 6, label %19
    i32 2, label %19
  ]

._crit_edge29:                                    ; preds = %15
  %.phi.trans.insert = getelementptr inbounds nuw i8, ptr %17, i64 8
  %.pre = load i32, ptr %.phi.trans.insert, align 4, !tbaa !31
  br label %23

19:                                               ; preds = %15, %15, %15
  %20 = load i32, ptr %17, align 4, !tbaa !34
  %21 = call i32 @av_channel_layout_index_from_channel(ptr noundef nonnull %13, i32 noundef %20) #10
  %22 = getelementptr inbounds nuw i8, ptr %17, i64 8
  store i32 %21, ptr %22, align 4, !tbaa !31
  br label %23

23:                                               ; preds = %._crit_edge29, %19
  %24 = phi i32 [ %.pre, %._crit_edge29 ], [ %21, %19 ]
  %25 = load i32, ptr %17, align 4, !tbaa !34
  call void @llvm.lifetime.start.p0(i64 64, ptr nonnull %2) #10
  call void @llvm.lifetime.start.p0(i64 256, ptr nonnull %3) #10
  %26 = icmp slt i32 %24, 0
  br i1 %26, label %29, label %27

27:                                               ; preds = %23
  %28 = load i32, ptr %14, align 4, !tbaa !67
  %.not.i = icmp slt i32 %24, %28
  br i1 %.not.i, label %check_idx_and_id.exit, label %29

29:                                               ; preds = %27, %23
  %30 = call i32 @av_channel_layout_describe(ptr noundef nonnull %13, ptr noundef nonnull %3, i64 noundef 256) #10
  %31 = icmp sgt i32 %25, -1
  br i1 %31, label %32, label %34

32:                                               ; preds = %29
  %33 = call i32 @av_channel_name(ptr noundef nonnull %2, i64 noundef 64, i32 noundef %25) #10
  call void (ptr, i32, ptr, ...) @av_log(ptr noundef %5, i32 noundef 16, ptr noundef nonnull @.str.4, ptr noundef nonnull @.str.3, ptr noundef nonnull %2, ptr noundef nonnull @.str.3, ptr noundef nonnull %3) #10
  br label %check_idx_and_id.exit

34:                                               ; preds = %29
  call void (ptr, i32, ptr, ...) @av_log(ptr noundef %5, i32 noundef 16, ptr noundef nonnull @.str.5, ptr noundef nonnull @.str.3, i32 noundef %24, ptr noundef nonnull @.str.3, ptr noundef nonnull %3) #10
  br label %check_idx_and_id.exit

check_idx_and_id.exit:                            ; preds = %32, %34, %27
  %35 = phi i32 [ %.02227, %27 ], [ -22, %34 ], [ -22, %32 ]
  call void @llvm.lifetime.end.p0(i64 256, ptr nonnull %3) #10
  call void @llvm.lifetime.end.p0(i64 64, ptr nonnull %2) #10
  %indvars.iv.next = add nuw nsw i64 %indvars.iv, 1
  %36 = load i32, ptr %8, align 8, !tbaa !38
  %37 = sext i32 %36 to i64
  %38 = icmp slt i64 %indvars.iv.next, %37
  br i1 %38, label %15, label %._crit_edge, !llvm.loop !68

._crit_edge:                                      ; preds = %check_idx_and_id.exit, %1
  %.022.lcssa = phi i32 [ 0, %1 ], [ %35, %check_idx_and_id.exit ]
  %39 = getelementptr inbounds nuw i8, ptr %7, i64 56
  call void @av_freep(ptr noundef nonnull %39) #10
  %40 = getelementptr inbounds nuw i8, ptr %0, i64 76
  %41 = load i32, ptr %40, align 4, !tbaa !59
  %42 = sext i32 %41 to i64
  %43 = call noalias ptr @av_calloc(i64 noundef %42, i64 noundef 8) #10
  store ptr %43, ptr %39, align 8, !tbaa !60
  %.not = icmp eq ptr %43, null
  %..022 = select i1 %.not, i32 -12, i32 %.022.lcssa
  ret i32 %..022
}